target datalayout = "e-m:e-p270:32:32-p271:32:32-p272:64:64-i64:64-i128:128-f80:128-n8:16:32:64-S128"
target triple = "x86_64-pc-linux-gnu"

%struct.Vec_Wrd_t_ = type { i32, i32, ptr }

; Function Attrs: inlinehint nounwind uwtable
define internal ptr @Vec_WrdLimit(ptr noundef %0) #2 {
  %2 = alloca ptr, align 8
  store ptr %0, ptr %2, align 8, !tbaa !7
  %3 = load ptr, ptr %2, align 8, !tbaa !7
  %4 = getelementptr inbounds nuw %struct.Vec_Wrd_t_, ptr %3, i32 0, i32 2
  %5 = load ptr, ptr %4, align 8, !tbaa !16
  %6 = load ptr, ptr %2, align 8, !tbaa !7
  %7 = getelementptr inbounds nuw %struct.Vec_Wrd_t_, ptr %6, i32 0, i32 1
  %8 = load i32, ptr %7, align 4, !tbaa !12
  %9 = sext i32 %8 to i64
  %10 = getelementptr inbounds i64, ptr %5, i64 %9
  ret ptr %10
}

; Function Attrs: inlinehint nounwind uwtable
define internal ptr @Vec_WrdArray(ptr noundef %0) #2 {
  %2 = alloca ptr, align 8
  store ptr %0, ptr %2, align 8, !tbaa !7
  %3 = load ptr, ptr %2, align 8, !tbaa !7
  %4 = getelementptr inbounds nuw %struct.Vec_Wrd_t_, ptr %3, i32 0, i32 2
  %5 = load ptr, ptr %4, align 8, !tbaa !16
  ret ptr %5
}

; Function Attrs: nounwind uwtable
define void @Abc_SuppGenSelectVar(ptr noundef %0, i32 noundef %1, i32 noundef %2) #0 {
  %4 = alloca ptr, align 8
  %5 = alloca i32, align 4
  %6 = alloca i32, align 4
  %7 = alloca ptr, align 8
  %8 = alloca ptr, align 8
  store ptr %0, ptr %4, align 8, !tbaa !7
  store i32 %1, ptr %5, align 4, !tbaa !3
  store i32 %2, ptr %6, align 4, !tbaa !3
  call void @llvm.lifetime.start.p0(i64 8, ptr %7) #13
  %9 = load ptr, ptr %4, align 8, !tbaa !7
  %10 = call ptr @Vec_WrdArray(ptr noundef %9)
  store ptr %10, ptr %7, align 8, !tbaa !19
  call void @llvm.lifetime.start.p0(i64 8, ptr %8) #13
  %11 = load ptr, ptr %4, align 8, !tbaa !7
  %12 = call ptr @Vec_WrdLimit(ptr noundef %11)
  store ptr %12, ptr %8, align 8, !tbaa !19
  br label %13

13:                                               ; preds = %33, %3
  %14 = load ptr, ptr %7, align 8, !tbaa !19
  %15 = load ptr, ptr %8, align 8, !tbaa !19
  %16 = icmp ult ptr %14, %15
  br i1 %16, label %17, label %36

17:                                               ; preds = %13
  %18 = load ptr, ptr %7, align 8, !tbaa !19
  %19 = load i64, ptr %18, align 8, !tbaa !17
  %20 = load i32, ptr %6, align 4, !tbaa !3
  %21 = zext i32 %20 to i64
  %22 = lshr i64 %19, %21
  %23 = and i64 %22, 1
  %24 = icmp ne i64 %23, 0
  br i1 %24, label %25, label %32

25:                                               ; preds = %17
  %26 = load i32, ptr %5, align 4, !tbaa !3
  %27 = zext i32 %26 to i64
  %28 = shl i64 1, %27
  %29 = load ptr, ptr %7, align 8, !tbaa !19
  %30 = load i64, ptr %29, align 8, !tbaa !17
  %31 = xor i64 %30, %28
  store i64 %31, ptr %29, align 8, !tbaa !17
  br label %32

32:                                               ; preds = %25, %17
  br label %33

33:                                               ; preds = %32
  %34 = load ptr, ptr %7, align 8, !tbaa !19
  %35 = getelementptr inbounds nuw i64, ptr %34, i32 1
  store ptr %35, ptr %7, align 8, !tbaa !19
  br label %13, !llvm.loop !36

36:                                               ; preds = %13
  call void @llvm.lifetime.end.p0(i64 8, ptr %8) #13
  call void @llvm.lifetime.end.p0(i64 8, ptr %7) #13
  ret void
}