; Function Attrs: nofree norecurse nosync nounwind memory(readwrite, inaccessiblemem: none) uwtable
define void @Abc_SuppGenSelectVar(ptr noundef readonly captures(none) %0, i32 noundef %1, i32 noundef %2) local_unnamed_addr #9 {
  %4 = getelementptr i8, ptr %0, i64 8
  %.val9 = load ptr, ptr %4, align 8, !tbaa !11
  %5 = getelementptr i8, ptr %0, i64 4
  %.val = load i32, ptr %5, align 4, !tbaa !3
  %6 = sext i32 %.val to i64
  %7 = getelementptr inbounds i64, ptr %.val9, i64 %6
  %8 = icmp sgt i32 %.val, 0
  br i1 %8, label %.lr.ph, label %._crit_edge

.lr.ph:                                           ; preds = %3
  %9 = zext nneg i32 %2 to i64
  %10 = shl nuw i64 1, %9
  %11 = zext nneg i32 %1 to i64
  %12 = shl nuw i64 1, %11
  br label %13

13:                                               ; preds = %.lr.ph, %18
  %.010 = phi ptr [ %.val9, %.lr.ph ], [ %19, %18 ]
  %14 = load i64, ptr %.010, align 8, !tbaa !12
  %15 = and i64 %14, %10
  %.not = icmp eq i64 %15, 0
  br i1 %.not, label %18, label %16

16:                                               ; preds = %13
  %17 = xor i64 %14, %12
  store i64 %17, ptr %.010, align 8, !tbaa !12
  br label %18

18:                                               ; preds = %13, %16
  %19 = getelementptr inbounds nuw i8, ptr %.010, i64 8
  %20 = icmp ult ptr %19, %7
  br i1 %20, label %13, label %._crit_edge, !llvm.loop !31

._crit_edge:                                      ; preds = %18, %3
  ret void
}